; Function Attrs: nounwind uwtable
define internal noundef i32 @module_clear(ptr noundef %0) #0 {
  %.not.i = icmp eq ptr %0, null
  br i1 %.not.i, label %2, label %3

2:                                                ; preds = %1
  tail call void @__assert_fail(ptr noundef nonnull @.str.151, ptr noundef nonnull @.str.80, i32 noundef 71, ptr noundef nonnull @__PRETTY_FUNCTION__.get_module_state) #12
  unreachable

3:                                                ; preds = %1
  %4 = tail call ptr @PyModule_GetState(ptr noundef nonnull %0) #11
  %.not5.i = icmp eq ptr %4, null
  br i1 %.not5.i, label %5, label %get_module_state.exit

5:                                                ; preds = %3
  tail call void @__assert_fail(ptr noundef nonnull @.str.152, ptr noundef nonnull @.str.80, i32 noundef 73, ptr noundef nonnull @__PRETTY_FUNCTION__.get_module_state) #12
  unreachable

get_module_state.exit:                            ; preds = %3
  %6 = load ptr, ptr %4, align 8, !tbaa !9
  %.not.i3 = icmp eq ptr %6, null
  br i1 %.not.i3, label %clear_module_state.exit, label %7

7:                                                ; preds = %get_module_state.exit
  store ptr null, ptr %4, align 8, !tbaa !9
  %8 = load i32, ptr %6, align 8, !tbaa !10
  %.not.i.i = icmp sgt i32 %8, -1
  br i1 %.not.i.i, label %9, label %clear_module_state.exit

9:                                                ; preds = %7
  %10 = add nsw i32 %8, -1
  store i32 %10, ptr %6, align 8, !tbaa !10
  %11 = icmp eq i32 %10, 0
  br i1 %11, label %12, label %clear_module_state.exit

12:                                               ; preds = %9
  tail call void @_Py_Dealloc(ptr noundef nonnull %6) #11
  br label %clear_module_state.exit

clear_module_state.exit:                          ; preds = %get_module_state.exit, %7, %9, %12
  ret i32 0
}